target datalayout = "e-m:e-p270:32:32-p271:32:32-p272:64:64-i64:64-i128:128-f80:128-n8:16:32:64-S128"
target triple = "x86_64-pc-linux-gnu"

%struct.Gia_Man_t_ = type { ptr, ptr, i32, i32, i32, i32, ptr, ptr, i32, i32, i32, ptr, ptr, %struct.Vec_Int_t_, %struct.Vec_Int_t_, i32, i32, i32, %struct.Vec_Int_t_, ptr, ptr, ptr, i32, i32, i32, i32, ptr, ptr, ptr, ptr, ptr, i32, i32, ptr, i32, ptr, ptr, ptr, ptr, ptr, ptr, ptr, ptr, ptr, ptr, ptr, ptr, ptr, ptr, ptr, ptr, ptr, ptr, %struct.Vec_Int_t_, %struct.Vec_Int_t_, ptr, ptr, ptr, ptr, ptr, ptr, ptr, ptr, ptr, ptr, ptr, ptr, ptr, ptr, ptr, ptr, ptr, ptr, ptr, ptr, ptr, i32, float, float, ptr, ptr, i32, ptr, ptr, ptr, ptr, ptr, ptr, ptr, ptr, ptr, ptr, ptr, ptr, ptr, ptr, ptr, i64, i64, ptr, ptr, i32, i32, i32, i32, i32, i32, i32, i32, i32, i32, i32, i32, ptr, ptr, ptr, ptr, ptr, ptr, ptr, ptr, i32, i32, i32, ptr, i32, i32, ptr, ptr, ptr, ptr, ptr, ptr, i32, i32, ptr, %struct.Vec_Int_t_, %struct.Vec_Int_t_, %struct.Vec_Int_t_, ptr, ptr, ptr }
%struct.Vec_Int_t_ = type { i32, i32, ptr }

@.str.2 = private unnamed_addr constant [37 x i8] c"&unmap; &lf -K %d -C %d -k %s; &save\00", align 1
@.str.3 = private unnamed_addr constant [3 x i8] c"-t\00", align 1
@.str.4 = private unnamed_addr constant [1 x i8] zeroinitializer, align 1
@.str.5 = private unnamed_addr constant [10 x i8] c"MAPPING:\0A\00", align 1
@.str.6 = private unnamed_addr constant [22 x i8] c"Mapping with &lf -k:\0A\00", align 1
@.str.7 = private unnamed_addr constant [4 x i8] c"&ps\00", align 1
@.str.8 = private unnamed_addr constant [34 x i8] c"&unmap; &lf -K %d -C %d %s; &save\00", align 1
@.str.9 = private unnamed_addr constant [19 x i8] c"Mapping with &lf:\0A\00", align 1
@.str.10 = private unnamed_addr constant [39 x i8] c"&unmap; &if -sz -S %d%d -K %d -C %d %s\00", align 1
@.str.11 = private unnamed_addr constant [6 x i8] c"&save\00", align 1
@.str.12 = private unnamed_addr constant [46 x i8] c"Mapping with &if -sz -S %d%d -K %d -C %d %s:\0A\00", align 1
@.str.13 = private unnamed_addr constant [6 x i8] c"&load\00", align 1
@.str.14 = private unnamed_addr constant [40 x i8] c"&put; mfs2 -W 4 -M 500 -C 7000; &get -m\00", align 1
@.str.15 = private unnamed_addr constant [16 x i8] c"Mapping final:\0A\00", align 1

; Function Attrs: nounwind uwtable
define internal void @Vec_IntFreeP(ptr noundef %0) #0 {
  %2 = alloca ptr, align 8
  store ptr %0, ptr %2, align 8
  %3 = load ptr, ptr %2, align 8
  %4 = load ptr, ptr %3, align 8
  %5 = icmp eq ptr %4, null
  br i1 %5, label %6, label %7

6:                                                ; preds = %1
  br label %32

7:                                                ; preds = %1
  %8 = load ptr, ptr %2, align 8
  %9 = load ptr, ptr %8, align 8
  %10 = getelementptr inbounds %struct.Vec_Int_t_, ptr %9, i32 0, i32 2
  %11 = load ptr, ptr %10, align 8
  %12 = icmp ne ptr %11, null
  br i1 %12, label %13, label %21

13:                                               ; preds = %7
  %14 = load ptr, ptr %2, align 8
  %15 = load ptr, ptr %14, align 8
  %16 = getelementptr inbounds %struct.Vec_Int_t_, ptr %15, i32 0, i32 2
  %17 = load ptr, ptr %16, align 8
  call void @free(ptr noundef %17) #9
  %18 = load ptr, ptr %2, align 8
  %19 = load ptr, ptr %18, align 8
  %20 = getelementptr inbounds %struct.Vec_Int_t_, ptr %19, i32 0, i32 2
  store ptr null, ptr %20, align 8
  br label %22

21:                                               ; preds = %7
  br label %22

22:                                               ; preds = %21, %13
  %23 = load ptr, ptr %2, align 8
  %24 = load ptr, ptr %23, align 8
  %25 = icmp ne ptr %24, null
  br i1 %25, label %26, label %30

26:                                               ; preds = %22
  %27 = load ptr, ptr %2, align 8
  %28 = load ptr, ptr %27, align 8
  call void @free(ptr noundef %28) #9
  %29 = load ptr, ptr %2, align 8
  store ptr null, ptr %29, align 8
  br label %31

30:                                               ; preds = %22
  br label %31

31:                                               ; preds = %30, %26
  br label %32

32:                                               ; preds = %31, %6
  ret void
}

; Function Attrs: nounwind uwtable
define void @Gia_ManPerformMap(i32 noundef %0, i32 noundef %1, i32 noundef %2, i32 noundef %3, i32 noundef %4, i32 noundef %5) #0 {
  %7 = alloca i32, align 4
  %8 = alloca i32, align 4
  %9 = alloca i32, align 4
  %10 = alloca i32, align 4
  %11 = alloca i32, align 4
  %12 = alloca i32, align 4
  %13 = alloca [200 x i8], align 16
  store i32 %0, ptr %7, align 4
  store i32 %1, ptr %8, align 4
  store i32 %2, ptr %9, align 4
  store i32 %3, ptr %10, align 4
  store i32 %4, ptr %11, align 4
  store i32 %5, ptr %12, align 4
  %14 = getelementptr inbounds [200 x i8], ptr %13, i64 0, i64 0
  %15 = load i32, ptr %8, align 4
  %16 = load i32, ptr %9, align 4
  %17 = load i32, ptr %10, align 4
  %18 = icmp ne i32 %17, 0
  %19 = select i1 %18, ptr @.str.3, ptr @.str.4
  %20 = call i32 (ptr, ptr, ...) @sprintf(ptr noundef %14, ptr noundef @.str.2, i32 noundef %15, i32 noundef %16, ptr noundef %19) #9
  %21 = call ptr (...) @Abc_FrameGetGlobalFrame()
  %22 = getelementptr inbounds [200 x i8], ptr %13, i64 0, i64 0
  %23 = call i32 @Cmd_CommandExecute(ptr noundef %21, ptr noundef %22)
  %24 = load i32, ptr %12, align 4
  %25 = icmp ne i32 %24, 0
  br i1 %25, label %26, label %31

26:                                               ; preds = %6
  %27 = call i32 (ptr, ...) @printf(ptr noundef @.str.5)
  %28 = call i32 (ptr, ...) @printf(ptr noundef @.str.6)
  %29 = call ptr (...) @Abc_FrameGetGlobalFrame()
  %30 = call i32 @Cmd_CommandExecute(ptr noundef %29, ptr noundef @.str.7)
  br label %31

31:                                               ; preds = %26, %6
  %32 = getelementptr inbounds [200 x i8], ptr %13, i64 0, i64 0
  %33 = load i32, ptr %8, align 4
  %34 = load i32, ptr %9, align 4
  %35 = load i32, ptr %10, align 4
  %36 = icmp ne i32 %35, 0
  %37 = select i1 %36, ptr @.str.3, ptr @.str.4
  %38 = call i32 (ptr, ptr, ...) @sprintf(ptr noundef %32, ptr noundef @.str.8, i32 noundef %33, i32 noundef %34, ptr noundef %37) #9
  %39 = call ptr (...) @Abc_FrameGetGlobalFrame()
  %40 = getelementptr inbounds [200 x i8], ptr %13, i64 0, i64 0
  %41 = call i32 @Cmd_CommandExecute(ptr noundef %39, ptr noundef %40)
  %42 = load i32, ptr %12, align 4
  %43 = icmp ne i32 %42, 0
  br i1 %43, label %44, label %48

44:                                               ; preds = %31
  %45 = call i32 (ptr, ...) @printf(ptr noundef @.str.9)
  %46 = call ptr (...) @Abc_FrameGetGlobalFrame()
  %47 = call i32 @Cmd_CommandExecute(ptr noundef %46, ptr noundef @.str.7)
  br label %48

48:                                               ; preds = %44, %31
  %49 = load i32, ptr %8, align 4
  %50 = icmp eq i32 %49, 4
  br i1 %50, label %51, label %54

51:                                               ; preds = %48
  %52 = load i32, ptr %7, align 4
  %53 = icmp slt i32 %52, 100000
  br i1 %53, label %60, label %54

54:                                               ; preds = %51, %48
  %55 = load i32, ptr %8, align 4
  %56 = icmp eq i32 %55, 6
  br i1 %56, label %57, label %98

57:                                               ; preds = %54
  %58 = load i32, ptr %7, align 4
  %59 = icmp slt i32 %58, 2000
  br i1 %59, label %60, label %98

60:                                               ; preds = %57, %51
  %61 = getelementptr inbounds [200 x i8], ptr %13, i64 0, i64 0
  %62 = load i32, ptr %8, align 4
  %63 = load i32, ptr %8, align 4
  %64 = load i32, ptr %8, align 4
  %65 = mul nsw i32 2, %64
  %66 = sub nsw i32 %65, 1
  %67 = load i32, ptr %9, align 4
  %68 = mul nsw i32 2, %67
  %69 = load i32, ptr %10, align 4
  %70 = icmp ne i32 %69, 0
  %71 = select i1 %70, ptr @.str.3, ptr @.str.4
  %72 = call i32 (ptr, ptr, ...) @sprintf(ptr noundef %61, ptr noundef @.str.10, i32 noundef %62, i32 noundef %63, i32 noundef %66, i32 noundef %68, ptr noundef %71) #9
  %73 = call ptr (...) @Abc_FrameGetGlobalFrame()
  %74 = getelementptr inbounds [200 x i8], ptr %13, i64 0, i64 0
  %75 = call i32 @Cmd_CommandExecute(ptr noundef %73, ptr noundef %74)
  %76 = call ptr (...) @Abc_FrameGetGlobalFrame()
  %77 = call ptr @Abc_FrameReadGia(ptr noundef %76)
  %78 = getelementptr inbounds %struct.Gia_Man_t_, ptr %77, i32 0, i32 42
  call void @Vec_IntFreeP(ptr noundef %78)
  %79 = call ptr (...) @Abc_FrameGetGlobalFrame()
  %80 = call i32 @Cmd_CommandExecute(ptr noundef %79, ptr noundef @.str.11)
  %81 = load i32, ptr %12, align 4
  %82 = icmp ne i32 %81, 0
  br i1 %82, label %83, label %97

83:                                               ; preds = %60
  %84 = load i32, ptr %8, align 4
  %85 = load i32, ptr %8, align 4
  %86 = load i32, ptr %8, align 4
  %87 = mul nsw i32 2, %86
  %88 = sub nsw i32 %87, 1
  %89 = load i32, ptr %9, align 4
  %90 = mul nsw i32 2, %89
  %91 = load i32, ptr %10, align 4
  %92 = icmp ne i32 %91, 0
  %93 = select i1 %92, ptr @.str.3, ptr @.str.4
  %94 = call i32 (ptr, ...) @printf(ptr noundef @.str.12, i32 noundef %84, i32 noundef %85, i32 noundef %88, i32 noundef %90, ptr noundef %93)
  %95 = call ptr (...) @Abc_FrameGetGlobalFrame()
  %96 = call i32 @Cmd_CommandExecute(ptr noundef %95, ptr noundef @.str.7)
  br label %97

97:                                               ; preds = %83, %60
  br label %98

98:                                               ; preds = %97, %57, %54
  %99 = call ptr (...) @Abc_FrameGetGlobalFrame()
  %100 = call i32 @Cmd_CommandExecute(ptr noundef %99, ptr noundef @.str.13)
  %101 = load i32, ptr %11, align 4
  %102 = icmp ne i32 %101, 0
  br i1 %102, label %103, label %106

103:                                              ; preds = %98
  %104 = call ptr (...) @Abc_FrameGetGlobalFrame()
  %105 = call i32 @Cmd_CommandExecute(ptr noundef %104, ptr noundef @.str.14)
  br label %106

106:                                              ; preds = %103, %98
  %107 = load i32, ptr %12, align 4
  %108 = icmp ne i32 %107, 0
  br i1 %108, label %109, label %113

109:                                              ; preds = %106
  %110 = call i32 (ptr, ...) @printf(ptr noundef @.str.15)
  %111 = call ptr (...) @Abc_FrameGetGlobalFrame()
  %112 = call i32 @Cmd_CommandExecute(ptr noundef %111, ptr noundef @.str.7)
  br label %113

113:                                              ; preds = %109, %106
  ret void
}