; Function Attrs: nounwind uwtable
define void @Gia_ManPerformMap(i32 noundef %0, i32 noundef %1, i32 noundef %2, i32 noundef %3, i32 noundef %4, i32 noundef %5) local_unnamed_addr #0 {
  %7 = alloca [200 x i8], align 16
  %.not = icmp eq i32 %3, 0
  %8 = select i1 %.not, ptr @.str.4, ptr @.str.3
  %9 = call i32 (ptr, ptr, ...) @sprintf(ptr noundef nonnull dereferenceable(1) %7, ptr noundef nonnull dereferenceable(1) @.str.2, i32 noundef %1, i32 noundef %2, ptr noundef nonnull %8) #15
  %10 = tail call ptr (...) @Abc_FrameGetGlobalFrame() #15
  %11 = call i32 @Cmd_CommandExecute(ptr noundef %10, ptr noundef nonnull %7) #15
  %.not28 = icmp eq i32 %5, 0
  br i1 %.not28, label %.critedge, label %12

12:                                               ; preds = %6
  %puts = call i32 @puts(ptr nonnull dereferenceable(1) @str)
  %puts29 = call i32 @puts(ptr nonnull dereferenceable(1) @str.1)
  %13 = call ptr (...) @Abc_FrameGetGlobalFrame() #15
  %14 = call i32 @Cmd_CommandExecute(ptr noundef %13, ptr noundef nonnull @.str.7) #15
  %15 = call i32 (ptr, ptr, ...) @sprintf(ptr noundef nonnull dereferenceable(1) %7, ptr noundef nonnull dereferenceable(1) @.str.8, i32 noundef %1, i32 noundef %2, ptr noundef nonnull %8) #15
  %16 = call ptr (...) @Abc_FrameGetGlobalFrame() #15
  %17 = call i32 @Cmd_CommandExecute(ptr noundef %16, ptr noundef nonnull %7) #15
  %puts30 = call i32 @puts(ptr nonnull dereferenceable(1) @str.2)
  br label %19

.critedge:                                        ; preds = %6
  %18 = call i32 (ptr, ptr, ...) @sprintf(ptr noundef nonnull dereferenceable(1) %7, ptr noundef nonnull dereferenceable(1) @.str.8, i32 noundef %1, i32 noundef %2, ptr noundef nonnull %8) #15
  br label %19

19:                                               ; preds = %.critedge, %12
  %.sink33 = phi ptr [ %7, %.critedge ], [ @.str.7, %12 ]
  %20 = call ptr (...) @Abc_FrameGetGlobalFrame() #15
  %21 = call i32 @Cmd_CommandExecute(ptr noundef %20, ptr noundef nonnull %.sink33) #15
  %22 = icmp eq i32 %1, 4
  %23 = icmp slt i32 %0, 100000
  %or.cond = and i1 %23, %22
  br i1 %or.cond, label %27, label %24

24:                                               ; preds = %19
  %25 = icmp eq i32 %1, 6
  %26 = icmp slt i32 %0, 2000
  %or.cond3 = and i1 %26, %25
  br i1 %or.cond3, label %27, label %52

27:                                               ; preds = %24, %19
  %28 = shl nuw nsw i32 %1, 1
  %29 = add nsw i32 %28, -1
  %30 = shl nsw i32 %2, 1
  %31 = call i32 (ptr, ptr, ...) @sprintf(ptr noundef nonnull dereferenceable(1) %7, ptr noundef nonnull dereferenceable(1) @.str.10, i32 noundef %1, i32 noundef %1, i32 noundef %29, i32 noundef %30, ptr noundef nonnull %8) #15
  %32 = call ptr (...) @Abc_FrameGetGlobalFrame() #15
  %33 = call i32 @Cmd_CommandExecute(ptr noundef %32, ptr noundef nonnull %7) #15
  %34 = call ptr (...) @Abc_FrameGetGlobalFrame() #15
  %35 = call ptr @Abc_FrameReadGia(ptr noundef %34) #15
  %36 = getelementptr inbounds nuw i8, ptr %35, i64 304
  %37 = load ptr, ptr %36, align 8
  %38 = icmp eq ptr %37, null
  br i1 %38, label %Vec_IntFreeP.exit, label %39

39:                                               ; preds = %27
  %40 = getelementptr inbounds nuw i8, ptr %37, i64 8
  %41 = load ptr, ptr %40, align 8
  %.not.i = icmp eq ptr %41, null
  br i1 %.not.i, label %.thread.i, label %42

42:                                               ; preds = %39
  call void @free(ptr noundef nonnull %41) #15
  %43 = load ptr, ptr %36, align 8
  %44 = getelementptr inbounds nuw i8, ptr %43, i64 8
  store ptr null, ptr %44, align 8
  %.pre.i = load ptr, ptr %36, align 8
  %.not9.i = icmp eq ptr %.pre.i, null
  br i1 %.not9.i, label %Vec_IntFreeP.exit, label %.thread.i

.thread.i:                                        ; preds = %42, %39
  %45 = phi ptr [ %.pre.i, %42 ], [ %37, %39 ]
  call void @free(ptr noundef nonnull %45) #15
  store ptr null, ptr %36, align 8
  br label %Vec_IntFreeP.exit

Vec_IntFreeP.exit:                                ; preds = %27, %42, %.thread.i
  %46 = call ptr (...) @Abc_FrameGetGlobalFrame() #15
  %47 = call i32 @Cmd_CommandExecute(ptr noundef %46, ptr noundef nonnull @.str.11) #15
  br i1 %.not28, label %52, label %48

48:                                               ; preds = %Vec_IntFreeP.exit
  %49 = call i32 (ptr, ...) @printf(ptr noundef nonnull dereferenceable(1) @.str.12, i32 noundef %1, i32 noundef %1, i32 noundef %29, i32 noundef %30, ptr noundef nonnull %8)
  %50 = call ptr (...) @Abc_FrameGetGlobalFrame() #15
  %51 = call i32 @Cmd_CommandExecute(ptr noundef %50, ptr noundef nonnull @.str.7) #15
  br label %52

52:                                               ; preds = %Vec_IntFreeP.exit, %48, %24
  %53 = call ptr (...) @Abc_FrameGetGlobalFrame() #15
  %54 = call i32 @Cmd_CommandExecute(ptr noundef %53, ptr noundef nonnull @.str.13) #15
  %.not31 = icmp eq i32 %4, 0
  br i1 %.not31, label %58, label %55

55:                                               ; preds = %52
  %56 = call ptr (...) @Abc_FrameGetGlobalFrame() #15
  %57 = call i32 @Cmd_CommandExecute(ptr noundef %56, ptr noundef nonnull @.str.14) #15
  br label %58

58:                                               ; preds = %55, %52
  br i1 %.not28, label %62, label %59

59:                                               ; preds = %58
  %puts32 = call i32 @puts(ptr nonnull dereferenceable(1) @str.3)
  %60 = call ptr (...) @Abc_FrameGetGlobalFrame() #15
  %61 = call i32 @Cmd_CommandExecute(ptr noundef %60, ptr noundef nonnull @.str.7) #15
  br label %62

62:                                               ; preds = %59, %58
  ret void
}